; ModuleID = '28/369.c'
source_filename = "28/369.c"
target datalayout = "e-m:e-p270:32:32-p271:32:32-p272:64:64-i64:64-f80:128-n8:16:32:64-S128"
target triple = "x86_64-pc-linux-gnu"

@.str = private unnamed_addr constant [4 x i8] c"%d,\00", align 1
@.str.1 = private unnamed_addr constant [3 x i8] c"%d\00", align 1

; Function Attrs: noinline nounwind uwtable
define dso_local i32 @main() #0 {
  %1 = alloca i32, align 4
  %2 = alloca [10000 x i8], align 16
  %3 = alloca i8*, align 8
  %4 = alloca i32, align 4
  %5 = alloca [1000 x i32], align 16
  %6 = alloca i32, align 4
  %7 = alloca i32, align 4
  %8 = alloca i32, align 4
  %9 = alloca i32, align 4
  %10 = alloca i32*, align 8
  %11 = alloca i32, align 4
  store i32 0, i32* %1, align 4
  %12 = getelementptr inbounds [10000 x i8], [10000 x i8]* %2, i64 0, i64 0
  store i8* %12, i8** %3, align 8
  %13 = getelementptr inbounds [10000 x i8], [10000 x i8]* %2, i64 0, i64 0
  %14 = call i32 (i8*, ...) bitcast (i32 (...)* @gets to i32 (i8*, ...)*)(i8* %13)
  %15 = getelementptr inbounds [10000 x i8], [10000 x i8]* %2, i64 0, i64 0
  %16 = call i64 @strlen(i8* %15) #4
  %17 = trunc i64 %16 to i32
  store i32 %17, i32* %4, align 4
  %18 = bitcast [1000 x i32]* %5 to i8*
  call void @llvm.memset.p0i8.i64(i8* align 16 %18, i8 0, i64 4000, i1 false)
  store i32 0, i32* %7, align 4
  store i32 0, i32* %8, align 4
  store i32 0, i32* %9, align 4
  %19 = getelementptr inbounds [1000 x i32], [1000 x i32]* %5, i64 0, i64 0
  store i32* %19, i32** %10, align 8
  store i32 1, i32* %11, align 4
  %20 = load i32, i32* %8, align 4
  store i32 %20, i32* %6, align 4
  br label %21

21:                                               ; preds = %55, %0
  %22 = load i32, i32* %6, align 4
  %23 = load i32, i32* %4, align 4
  %24 = icmp slt i32 %22, %23
  br i1 %24, label %25, label %58

25:                                               ; preds = %21
  %26 = load i8*, i8** %3, align 8
  %27 = load i32, i32* %6, align 4
  %28 = sext i32 %27 to i64
  %29 = getelementptr inbounds i8, i8* %26, i64 %28
  %30 = load i8, i8* %29, align 1
  %31 = sext i8 %30 to i32
  %32 = icmp ne i32 %31, 32
  br i1 %32, label %33, label %44

33:                                               ; preds = %25
  %34 = load i32*, i32** %10, align 8
  %35 = load i32, i32* %7, align 4
  %36 = sext i32 %35 to i64
  %37 = getelementptr inbounds i32, i32* %34, i64 %36
  %38 = load i32, i32* %37, align 4
  %39 = add nsw i32 %38, 1
  %40 = load i32*, i32** %10, align 8
  %41 = load i32, i32* %7, align 4
  %42 = sext i32 %41 to i64
  %43 = getelementptr inbounds i32, i32* %40, i64 %42
  store i32 %39, i32* %43, align 4
  store i32 0, i32* %9, align 4
  br label %54

44:                                               ; preds = %25
  %45 = load i32, i32* %9, align 4
  %46 = icmp eq i32 %45, 0
  br i1 %46, label %47, label %53

47:                                               ; preds = %44
  store i32 1, i32* %9, align 4
  %48 = load i32, i32* %7, align 4
  %49 = add nsw i32 %48, 1
  store i32 %49, i32* %7, align 4
  %50 = load i32, i32* %6, align 4
  %51 = add nsw i32 %50, 1
  store i32 %51, i32* %8, align 4
  %52 = load i32, i32* %7, align 4
  store i32 %52, i32* %11, align 4
  br label %53

53:                                               ; preds = %47, %44
  br label %54

54:                                               ; preds = %53, %33
  br label %55

55:                                               ; preds = %54
  %56 = load i32, i32* %6, align 4
  %57 = add nsw i32 %56, 1
  store i32 %57, i32* %6, align 4
  br label %21

58:                                               ; preds = %21
  %59 = load i32, i32* %11, align 4
  %60 = icmp ne i32 %59, 1
  br i1 %60, label %61, label %83

61:                                               ; preds = %58
  store i32 0, i32* %7, align 4
  br label %62

62:                                               ; preds = %73, %61
  %63 = load i32, i32* %7, align 4
  %64 = load i32, i32* %11, align 4
  %65 = icmp slt i32 %63, %64
  br i1 %65, label %66, label %76

66:                                               ; preds = %62
  %67 = load i32*, i32** %10, align 8
  %68 = load i32, i32* %7, align 4
  %69 = sext i32 %68 to i64
  %70 = getelementptr inbounds i32, i32* %67, i64 %69
  %71 = load i32, i32* %70, align 4
  %72 = call i32 (i8*, ...) @printf(i8* getelementptr inbounds ([4 x i8], [4 x i8]* @.str, i64 0, i64 0), i32 %71)
  br label %73

73:                                               ; preds = %66
  %74 = load i32, i32* %7, align 4
  %75 = add nsw i32 %74, 1
  store i32 %75, i32* %7, align 4
  br label %62

76:                                               ; preds = %62
  %77 = load i32*, i32** %10, align 8
  %78 = load i32, i32* %11, align 4
  %79 = sext i32 %78 to i64
  %80 = getelementptr inbounds i32, i32* %77, i64 %79
  %81 = load i32, i32* %80, align 4
  %82 = call i32 (i8*, ...) @printf(i8* getelementptr inbounds ([3 x i8], [3 x i8]* @.str.1, i64 0, i64 0), i32 %81)
  br label %87

83:                                               ; preds = %58
  %84 = load i32*, i32** %10, align 8
  %85 = load i32, i32* %84, align 4
  %86 = call i32 (i8*, ...) @printf(i8* getelementptr inbounds ([3 x i8], [3 x i8]* @.str.1, i64 0, i64 0), i32 %85)
  br label %87

87:                                               ; preds = %83, %76
  ret i32 0
}

declare dso_local i32 @gets(...) #1

; Function Attrs: nounwind readonly
declare dso_local i64 @strlen(i8*) #2

; Function Attrs: argmemonly nounwind willreturn
declare void @llvm.memset.p0i8.i64(i8* nocapture writeonly, i8, i64, i1 immarg) #3

declare dso_local i32 @printf(i8*, ...) #1


!llvm.module.flags = !{!0}
!llvm.ident = !{!1}

!0 = !{i32 1, !"wchar_size", i32 4}
!1 = !{!"clang version 10.0.0-4ubuntu1 "}
