; ModuleID = 'source-C-CXX/27/369.c'
source_filename = "source-C-CXX/27/369.c"
target datalayout = "e-m:e-p270:32:32-p271:32:32-p272:64:64-i64:64-f80:128-n8:16:32:64-S128"
target triple = "x86_64-pc-linux-gnu"

@.str = private unnamed_addr constant [4 x i8] c"%d,\00", align 1
@.str.1 = private unnamed_addr constant [3 x i8] c"%d\00", align 1

; Function Attrs: nounwind sspstrong uwtable
define dso_local i32 @main() local_unnamed_addr #0 {
  %1 = alloca [10000 x i8], align 16
  %2 = alloca [1000 x i32], align 16
  %3 = getelementptr inbounds [10000 x i8], [10000 x i8]* %1, i64 0, i64 0
  call void @llvm.lifetime.start.p0i8(i64 10000, i8* nonnull %3) #6
  %4 = call i32 (i8*, ...) bitcast (i32 (...)* @gets to i32 (i8*, ...)*)(i8* nonnull %3) #6
  %5 = call i64 @strlen(i8* noundef nonnull %3) #7
  %6 = trunc i64 %5 to i32
  %7 = bitcast [1000 x i32]* %2 to i8*
  call void @llvm.lifetime.start.p0i8(i64 4000, i8* nonnull %7) #6
  call void @llvm.memset.p0i8.i64(i8* noundef nonnull align 16 dereferenceable(4000) %7, i8 0, i64 4000, i1 false)
  %8 = getelementptr inbounds [1000 x i32], [1000 x i32]* %2, i64 0, i64 0
  %9 = icmp sgt i32 %6, 0
  br i1 %9, label %10, label %53

10:                                               ; preds = %0
  %11 = and i64 %5, 4294967295
  br label %12

12:                                               ; preds = %10, %30
  %13 = phi i64 [ 0, %10 ], [ %34, %30 ]
  %14 = phi i32 [ 1, %10 ], [ %33, %30 ]
  %15 = phi i32 [ 0, %10 ], [ %32, %30 ]
  %16 = phi i32 [ 0, %10 ], [ %31, %30 ]
  %17 = getelementptr inbounds [10000 x i8], [10000 x i8]* %1, i64 0, i64 %13
  %18 = load i8, i8* %17, align 1, !tbaa !5
  %19 = icmp eq i8 %18, 32
  br i1 %19, label %25, label %20

20:                                               ; preds = %12
  %21 = sext i32 %16 to i64
  %22 = getelementptr inbounds [1000 x i32], [1000 x i32]* %2, i64 0, i64 %21
  %23 = load i32, i32* %22, align 4, !tbaa !8
  %24 = add nsw i32 %23, 1
  store i32 %24, i32* %22, align 4, !tbaa !8
  br label %30

25:                                               ; preds = %12
  %26 = icmp eq i32 %15, 0
  %27 = add nsw i32 %16, 1
  %28 = select i1 %26, i32 %27, i32 %16
  %29 = select i1 %26, i32 %27, i32 %14
  br label %30

30:                                               ; preds = %25, %20
  %31 = phi i32 [ %16, %20 ], [ %28, %25 ]
  %32 = phi i32 [ 0, %20 ], [ 1, %25 ]
  %33 = phi i32 [ %14, %20 ], [ %29, %25 ]
  %34 = add nuw nsw i64 %13, 1
  %35 = icmp eq i64 %34, %11
  br i1 %35, label %36, label %12, !llvm.loop !10

36:                                               ; preds = %30
  %37 = icmp eq i32 %33, 1
  br i1 %37, label %53, label %38

38:                                               ; preds = %36
  %39 = icmp sgt i32 %33, 0
  br i1 %39, label %40, label %49

40:                                               ; preds = %38
  %41 = zext i32 %33 to i64
  br label %42

42:                                               ; preds = %40, %42
  %43 = phi i64 [ 0, %40 ], [ %47, %42 ]
  %44 = getelementptr inbounds [1000 x i32], [1000 x i32]* %2, i64 0, i64 %43
  %45 = load i32, i32* %44, align 4, !tbaa !8
  %46 = call i32 (i8*, ...) @printf(i8* nonnull dereferenceable(1) getelementptr inbounds ([4 x i8], [4 x i8]* @.str, i64 0, i64 0), i32 %45)
  %47 = add nuw nsw i64 %43, 1
  %48 = icmp eq i64 %47, %41
  br i1 %48, label %49, label %42, !llvm.loop !12

49:                                               ; preds = %42, %38
  %50 = sext i32 %33 to i64
  %51 = getelementptr inbounds [1000 x i32], [1000 x i32]* %2, i64 0, i64 %50
  %52 = load i32, i32* %51, align 4, !tbaa !8
  br label %55

53:                                               ; preds = %0, %36
  %54 = load i32, i32* %8, align 16, !tbaa !8
  br label %55

55:                                               ; preds = %53, %49
  %56 = phi i32 [ %54, %53 ], [ %52, %49 ]
  %57 = call i32 (i8*, ...) @printf(i8* nonnull dereferenceable(1) getelementptr inbounds ([3 x i8], [3 x i8]* @.str.1, i64 0, i64 0), i32 %56)
  call void @llvm.lifetime.end.p0i8(i64 4000, i8* nonnull %7) #6
  call void @llvm.lifetime.end.p0i8(i64 10000, i8* nonnull %3) #6
  ret i32 0
}

; Function Attrs: argmemonly mustprogress nofree nosync nounwind willreturn
declare void @llvm.lifetime.start.p0i8(i64 immarg, i8* nocapture) #1

declare i32 @gets(...) local_unnamed_addr #2

; Function Attrs: argmemonly mustprogress nofree nounwind readonly willreturn
declare i64 @strlen(i8* nocapture) local_unnamed_addr #3

; Function Attrs: argmemonly mustprogress nofree nounwind willreturn writeonly
declare void @llvm.memset.p0i8.i64(i8* nocapture writeonly, i8, i64, i1 immarg) #4

; Function Attrs: nofree nounwind
declare noundef i32 @printf(i8* nocapture noundef readonly, ...) local_unnamed_addr #5

; Function Attrs: argmemonly mustprogress nofree nosync nounwind willreturn
declare void @llvm.lifetime.end.p0i8(i64 immarg, i8* nocapture) #1


!llvm.module.flags = !{!0, !1, !2, !3}
!llvm.ident = !{!4}

!0 = !{i32 1, !"wchar_size", i32 4}
!1 = !{i32 7, !"PIC Level", i32 2}
!2 = !{i32 7, !"PIE Level", i32 2}
!3 = !{i32 7, !"uwtable", i32 1}
!4 = !{!"clang version 13.0.0"}
!5 = !{!6, !6, i64 0}
!6 = !{!"omnipotent char", !7, i64 0}
!7 = !{!"Simple C/C++ TBAA"}
!8 = !{!9, !9, i64 0}
!9 = !{!"int", !6, i64 0}
!10 = distinct !{!10, !11}
!11 = !{!"llvm.loop.mustprogress"}
!12 = distinct !{!12, !11}
